target datalayout = "e-m:e-p270:32:32-p271:32:32-p272:64:64-i64:64-i128:128-f80:128-n8:16:32:64-S128"
target triple = "x86_64-pc-linux-gnu"

%struct.evthread_lock_callbacks = type { i32, i32, ptr, ptr, ptr, ptr }
%struct.bufferevent_private = type { %struct.bufferevent, ptr, i8, i16, i16, i16, i32, i32, %struct.event_callback, i32, i32, ptr, i64, i64, ptr, %union.anon.7, ptr }
%struct.bufferevent = type { ptr, ptr, %struct.event, %struct.event, ptr, ptr, %struct.event_watermark, %struct.event_watermark, ptr, ptr, ptr, ptr, %struct.timeval, %struct.timeval, i16 }
%struct.event = type { %struct.event_callback, %union.anon.0, i32, i16, i16, ptr, %union.anon.2, %struct.timeval }
%union.anon.0 = type { %struct.anon.1 }
%struct.anon.1 = type { ptr, ptr }
%union.anon.2 = type { %struct.anon.3 }
%struct.anon.3 = type { %struct.anon.4, %struct.timeval }
%struct.anon.4 = type { ptr, ptr }
%struct.event_watermark = type { i64, i64 }
%struct.timeval = type { i64, i64 }
%struct.event_callback = type { %struct.anon, i16, i8, i8, %union.anon, ptr }
%struct.anon = type { ptr, ptr }
%union.anon = type { ptr }
%union.anon.7 = type { %struct.sockaddr_in6 }
%struct.sockaddr_in6 = type { i16, i16, i32, %struct.in6_addr, i32 }
%struct.in6_addr = type { %union.anon.8 }
%union.anon.8 = type { [4 x i32] }
%struct.bufferevent_ops = type { ptr, i64, ptr, ptr, ptr, ptr, ptr, ptr, ptr }
%union.bufferevent_ctrl_data = type { ptr }

@evthread_lock_fns_ = external global %struct.evthread_lock_callbacks, align 8

; Function Attrs: nounwind uwtable
define ptr @bufferevent_get_underlying(ptr noundef %0) #0 {
  %2 = alloca ptr, align 8
  %3 = alloca %union.bufferevent_ctrl_data, align 8
  %4 = alloca i32, align 4
  %5 = alloca ptr, align 8
  %6 = alloca ptr, align 8
  store ptr %0, ptr %2, align 8
  call void @llvm.lifetime.start.p0(i64 8, ptr %3) #7
  call void @llvm.lifetime.start.p0(i64 4, ptr %4) #7
  store i32 -1, ptr %4, align 4
  store ptr null, ptr %3, align 8
  br label %7

7:                                                ; preds = %1
  call void @llvm.lifetime.start.p0(i64 8, ptr %5) #7
  %8 = load ptr, ptr %2, align 8
  %9 = getelementptr inbounds i8, ptr %8, i64 0
  store ptr %9, ptr %5, align 8
  br label %10

10:                                               ; preds = %7
  %11 = load ptr, ptr %5, align 8
  %12 = getelementptr inbounds nuw %struct.bufferevent_private, ptr %11, i32 0, i32 11
  %13 = load ptr, ptr %12, align 8
  %14 = icmp ne ptr %13, null
  br i1 %14, label %15, label %21

15:                                               ; preds = %10
  %16 = load ptr, ptr getelementptr inbounds nuw (%struct.evthread_lock_callbacks, ptr @evthread_lock_fns_, i32 0, i32 4), align 8
  %17 = load ptr, ptr %5, align 8
  %18 = getelementptr inbounds nuw %struct.bufferevent_private, ptr %17, i32 0, i32 11
  %19 = load ptr, ptr %18, align 8
  %20 = call i32 %16(i32 noundef 0, ptr noundef %19)
  br label %21

21:                                               ; preds = %15, %10
  br label %22

22:                                               ; preds = %21
  br label %23

23:                                               ; preds = %22
  call void @llvm.lifetime.end.p0(i64 8, ptr %5) #7
  br label %24

24:                                               ; preds = %23
  br label %25

25:                                               ; preds = %24
  %26 = load ptr, ptr %2, align 8
  %27 = getelementptr inbounds nuw %struct.bufferevent, ptr %26, i32 0, i32 1
  %28 = load ptr, ptr %27, align 8
  %29 = getelementptr inbounds nuw %struct.bufferevent_ops, ptr %28, i32 0, i32 8
  %30 = load ptr, ptr %29, align 8
  %31 = icmp ne ptr %30, null
  br i1 %31, label %32, label %40

32:                                               ; preds = %25
  %33 = load ptr, ptr %2, align 8
  %34 = getelementptr inbounds nuw %struct.bufferevent, ptr %33, i32 0, i32 1
  %35 = load ptr, ptr %34, align 8
  %36 = getelementptr inbounds nuw %struct.bufferevent_ops, ptr %35, i32 0, i32 8
  %37 = load ptr, ptr %36, align 8
  %38 = load ptr, ptr %2, align 8
  %39 = call i32 %37(ptr noundef %38, i32 noundef 2, ptr noundef %3)
  store i32 %39, ptr %4, align 4
  br label %40

40:                                               ; preds = %32, %25
  br label %41

41:                                               ; preds = %40
  call void @llvm.lifetime.start.p0(i64 8, ptr %6) #7
  %42 = load ptr, ptr %2, align 8
  %43 = getelementptr inbounds i8, ptr %42, i64 0
  store ptr %43, ptr %6, align 8
  br label %44

44:                                               ; preds = %41
  %45 = load ptr, ptr %6, align 8
  %46 = getelementptr inbounds nuw %struct.bufferevent_private, ptr %45, i32 0, i32 11
  %47 = load ptr, ptr %46, align 8
  %48 = icmp ne ptr %47, null
  br i1 %48, label %49, label %55

49:                                               ; preds = %44
  %50 = load ptr, ptr getelementptr inbounds nuw (%struct.evthread_lock_callbacks, ptr @evthread_lock_fns_, i32 0, i32 5), align 8
  %51 = load ptr, ptr %6, align 8
  %52 = getelementptr inbounds nuw %struct.bufferevent_private, ptr %51, i32 0, i32 11
  %53 = load ptr, ptr %52, align 8
  %54 = call i32 %50(i32 noundef 0, ptr noundef %53)
  br label %55

55:                                               ; preds = %49, %44
  br label %56

56:                                               ; preds = %55
  br label %57

57:                                               ; preds = %56
  call void @llvm.lifetime.end.p0(i64 8, ptr %6) #7
  br label %58

58:                                               ; preds = %57
  br label %59

59:                                               ; preds = %58
  %60 = load i32, ptr %4, align 4
  %61 = icmp slt i32 %60, 0
  br i1 %61, label %62, label %63

62:                                               ; preds = %59
  br label %65

63:                                               ; preds = %59
  %64 = load ptr, ptr %3, align 8
  br label %65

65:                                               ; preds = %63, %62
  %66 = phi ptr [ null, %62 ], [ %64, %63 ]
  call void @llvm.lifetime.end.p0(i64 4, ptr %4) #7
  call void @llvm.lifetime.end.p0(i64 8, ptr %3) #7
  ret ptr %66
}

; Function Attrs: nounwind uwtable
define i32 @bufferevent_enable_locking_(ptr noundef %0, ptr noundef %1) #0 {
  %3 = alloca i32, align 4
  %4 = alloca ptr, align 8
  %5 = alloca ptr, align 8
  %6 = alloca ptr, align 8
  %7 = alloca i32, align 4
  store ptr %0, ptr %4, align 8
  store ptr %1, ptr %5, align 8
  call void @llvm.lifetime.start.p0(i64 8, ptr %6) #7
  %8 = load ptr, ptr %4, align 8
  %9 = getelementptr inbounds i8, ptr %8, i64 0
  %10 = getelementptr inbounds nuw %struct.bufferevent_private, ptr %9, i32 0, i32 11
  %11 = load ptr, ptr %10, align 8
  %12 = icmp ne ptr %11, null
  br i1 %12, label %13, label %14

13:                                               ; preds = %2
  store i32 -1, ptr %3, align 4
  store i32 1, ptr %7, align 4
  br label %105

14:                                               ; preds = %2
  %15 = load ptr, ptr %4, align 8
  %16 = call ptr @bufferevent_get_underlying(ptr noundef %15)
  store ptr %16, ptr %6, align 8
  %17 = load ptr, ptr %5, align 8
  %18 = icmp ne ptr %17, null
  br i1 %18, label %43, label %19

19:                                               ; preds = %14
  %20 = load ptr, ptr %6, align 8
  %21 = icmp ne ptr %20, null
  br i1 %21, label %22, label %43

22:                                               ; preds = %19
  %23 = load ptr, ptr %6, align 8
  %24 = getelementptr inbounds i8, ptr %23, i64 0
  %25 = getelementptr inbounds nuw %struct.bufferevent_private, ptr %24, i32 0, i32 11
  %26 = load ptr, ptr %25, align 8
  %27 = icmp ne ptr %26, null
  br i1 %27, label %28, label %43

28:                                               ; preds = %22
  %29 = load ptr, ptr %6, align 8
  %30 = getelementptr inbounds i8, ptr %29, i64 0
  %31 = getelementptr inbounds nuw %struct.bufferevent_private, ptr %30, i32 0, i32 11
  %32 = load ptr, ptr %31, align 8
  store ptr %32, ptr %5, align 8
  %33 = load ptr, ptr %5, align 8
  %34 = load ptr, ptr %4, align 8
  %35 = getelementptr inbounds i8, ptr %34, i64 0
  %36 = getelementptr inbounds nuw %struct.bufferevent_private, ptr %35, i32 0, i32 11
  store ptr %33, ptr %36, align 8
  %37 = load ptr, ptr %4, align 8
  %38 = getelementptr inbounds i8, ptr %37, i64 0
  %39 = getelementptr inbounds nuw %struct.bufferevent_private, ptr %38, i32 0, i32 2
  %40 = load i8, ptr %39, align 8
  %41 = and i8 %40, -2
  %42 = or i8 %41, 0
  store i8 %42, ptr %39, align 8
  br label %81

43:                                               ; preds = %22, %19, %14
  %44 = load ptr, ptr %5, align 8
  %45 = icmp ne ptr %44, null
  br i1 %45, label %69, label %46

46:                                               ; preds = %43
  %47 = load ptr, ptr getelementptr inbounds nuw (%struct.evthread_lock_callbacks, ptr @evthread_lock_fns_, i32 0, i32 2), align 8
  %48 = icmp ne ptr %47, null
  br i1 %48, label %49, label %52

49:                                               ; preds = %46
  %50 = load ptr, ptr getelementptr inbounds nuw (%struct.evthread_lock_callbacks, ptr @evthread_lock_fns_, i32 0, i32 2), align 8
  %51 = call ptr %50(i32 noundef 1)
  br label %53

52:                                               ; preds = %46
  br label %53

53:                                               ; preds = %52, %49
  %54 = phi ptr [ %51, %49 ], [ null, %52 ]
  store ptr %54, ptr %5, align 8
  %55 = load ptr, ptr %5, align 8
  %56 = icmp ne ptr %55, null
  br i1 %56, label %58, label %57

57:                                               ; preds = %53
  store i32 -1, ptr %3, align 4
  store i32 1, ptr %7, align 4
  br label %105

58:                                               ; preds = %53
  %59 = load ptr, ptr %5, align 8
  %60 = load ptr, ptr %4, align 8
  %61 = getelementptr inbounds i8, ptr %60, i64 0
  %62 = getelementptr inbounds nuw %struct.bufferevent_private, ptr %61, i32 0, i32 11
  store ptr %59, ptr %62, align 8
  %63 = load ptr, ptr %4, align 8
  %64 = getelementptr inbounds i8, ptr %63, i64 0
  %65 = getelementptr inbounds nuw %struct.bufferevent_private, ptr %64, i32 0, i32 2
  %66 = load i8, ptr %65, align 8
  %67 = and i8 %66, -2
  %68 = or i8 %67, 1
  store i8 %68, ptr %65, align 8
  br label %80

69:                                               ; preds = %43
  %70 = load ptr, ptr %5, align 8
  %71 = load ptr, ptr %4, align 8
  %72 = getelementptr inbounds i8, ptr %71, i64 0
  %73 = getelementptr inbounds nuw %struct.bufferevent_private, ptr %72, i32 0, i32 11
  store ptr %70, ptr %73, align 8
  %74 = load ptr, ptr %4, align 8
  %75 = getelementptr inbounds i8, ptr %74, i64 0
  %76 = getelementptr inbounds nuw %struct.bufferevent_private, ptr %75, i32 0, i32 2
  %77 = load i8, ptr %76, align 8
  %78 = and i8 %77, -2
  %79 = or i8 %78, 0
  store i8 %79, ptr %76, align 8
  br label %80

80:                                               ; preds = %69, %58
  br label %81

81:                                               ; preds = %80, %28
  %82 = load ptr, ptr %4, align 8
  %83 = getelementptr inbounds nuw %struct.bufferevent, ptr %82, i32 0, i32 4
  %84 = load ptr, ptr %83, align 8
  %85 = load ptr, ptr %5, align 8
  %86 = call i32 @evbuffer_enable_locking(ptr noundef %84, ptr noundef %85)
  %87 = load ptr, ptr %4, align 8
  %88 = getelementptr inbounds nuw %struct.bufferevent, ptr %87, i32 0, i32 5
  %89 = load ptr, ptr %88, align 8
  %90 = load ptr, ptr %5, align 8
  %91 = call i32 @evbuffer_enable_locking(ptr noundef %89, ptr noundef %90)
  %92 = load ptr, ptr %6, align 8
  %93 = icmp ne ptr %92, null
  br i1 %93, label %94, label %104

94:                                               ; preds = %81
  %95 = load ptr, ptr %6, align 8
  %96 = getelementptr inbounds i8, ptr %95, i64 0
  %97 = getelementptr inbounds nuw %struct.bufferevent_private, ptr %96, i32 0, i32 11
  %98 = load ptr, ptr %97, align 8
  %99 = icmp ne ptr %98, null
  br i1 %99, label %104, label %100

100:                                              ; preds = %94
  %101 = load ptr, ptr %6, align 8
  %102 = load ptr, ptr %5, align 8
  %103 = call i32 @bufferevent_enable_locking_(ptr noundef %101, ptr noundef %102)
  br label %104

104:                                              ; preds = %100, %94, %81
  store i32 0, ptr %3, align 4
  store i32 1, ptr %7, align 4
  br label %105

105:                                              ; preds = %104, %57, %13
  call void @llvm.lifetime.end.p0(i64 8, ptr %6) #7
  %106 = load i32, ptr %3, align 4
  ret i32 %106
}