; Function Attrs: nounwind uwtable
define range(i32 -1, 1) i32 @bufferevent_enable_locking_(ptr noundef %0, ptr noundef %1) local_unnamed_addr #0 {
  %3 = alloca %union.bufferevent_ctrl_data, align 8
  %4 = getelementptr inbounds nuw i8, ptr %0, i64 448
  %5 = load ptr, ptr %4, align 8
  %.not = icmp eq ptr %5, null
  br i1 %.not, label %6, label %.thread37

6:                                                ; preds = %2
  call void @llvm.lifetime.start.p0(i64 8, ptr nonnull %3) #7
  store ptr null, ptr %3, align 8
  %7 = getelementptr inbounds nuw i8, ptr %0, i64 8
  %8 = load ptr, ptr %7, align 8
  %9 = getelementptr inbounds nuw i8, ptr %8, i64 64
  %10 = load ptr, ptr %9, align 8
  %.not12.i = icmp eq ptr %10, null
  br i1 %.not12.i, label %.thread46, label %11

11:                                               ; preds = %6
  %12 = call i32 %10(ptr noundef nonnull %0, i32 noundef 2, ptr noundef nonnull %3) #7
  %.fr = freeze i32 %12
  %13 = icmp slt i32 %.fr, 0
  %.pre = load ptr, ptr %4, align 8
  %.not13.i = icmp eq ptr %.pre, null
  br i1 %.not13.i, label %bufferevent_get_underlying.exit, label %14

14:                                               ; preds = %11
  %15 = load ptr, ptr getelementptr inbounds nuw (i8, ptr @evthread_lock_fns_, i64 32), align 8
  %16 = call i32 %15(i32 noundef 0, ptr noundef nonnull %.pre) #7
  br i1 %13, label %.thread46, label %18

bufferevent_get_underlying.exit:                  ; preds = %11
  br i1 %13, label %.thread46, label %18

.thread46:                                        ; preds = %bufferevent_get_underlying.exit, %14, %6
  call void @llvm.lifetime.end.p0(i64 8, ptr nonnull %3) #7
  %17 = icmp eq ptr %1, null
  br i1 %17, label %.thread, label %39

18:                                               ; preds = %14, %bufferevent_get_underlying.exit
  %19 = load ptr, ptr %3, align 8
  call void @llvm.lifetime.end.p0(i64 8, ptr nonnull %3) #7
  %20 = icmp eq ptr %1, null
  %21 = icmp ne ptr %19, null
  %or.cond = select i1 %20, i1 %21, i1 false
  br i1 %or.cond, label %22, label %29

22:                                               ; preds = %18
  %23 = getelementptr inbounds nuw i8, ptr %19, i64 448
  %24 = load ptr, ptr %23, align 8
  %.not32 = icmp eq ptr %24, null
  br i1 %.not32, label %.thread, label %25

25:                                               ; preds = %22
  store ptr %24, ptr %4, align 8
  %26 = getelementptr inbounds nuw i8, ptr %0, i64 384
  %27 = load i8, ptr %26, align 8
  %28 = and i8 %27, -2
  store i8 %28, ptr %26, align 8
  br label %45

29:                                               ; preds = %18
  br i1 %20, label %.thread, label %39

.thread:                                          ; preds = %.thread46, %22, %29
  %30 = phi i1 [ %21, %22 ], [ %21, %29 ], [ false, %.thread46 ]
  %31 = phi ptr [ %19, %22 ], [ %19, %29 ], [ null, %.thread46 ]
  %32 = load ptr, ptr getelementptr inbounds nuw (i8, ptr @evthread_lock_fns_, i64 8), align 8
  %.not34 = icmp eq ptr %32, null
  br i1 %.not34, label %.thread37, label %33

33:                                               ; preds = %.thread
  %34 = call ptr %32(i32 noundef 1) #7
  %.not35 = icmp eq ptr %34, null
  br i1 %.not35, label %.thread37, label %35

35:                                               ; preds = %33
  store ptr %34, ptr %4, align 8
  %36 = getelementptr inbounds nuw i8, ptr %0, i64 384
  %37 = load i8, ptr %36, align 8
  %38 = or i8 %37, 1
  store i8 %38, ptr %36, align 8
  br label %45

39:                                               ; preds = %.thread46, %29
  %40 = phi ptr [ null, %.thread46 ], [ %19, %29 ]
  %41 = phi i1 [ false, %.thread46 ], [ %21, %29 ]
  store ptr %1, ptr %4, align 8
  %42 = getelementptr inbounds nuw i8, ptr %0, i64 384
  %43 = load i8, ptr %42, align 8
  %44 = and i8 %43, -2
  store i8 %44, ptr %42, align 8
  br label %45

45:                                               ; preds = %35, %39, %25
  %46 = phi i1 [ %21, %25 ], [ %41, %39 ], [ %30, %35 ]
  %47 = phi ptr [ %19, %25 ], [ %40, %39 ], [ %31, %35 ]
  %.026 = phi ptr [ %24, %25 ], [ %1, %39 ], [ %34, %35 ]
  %48 = getelementptr inbounds nuw i8, ptr %0, i64 256
  %49 = load ptr, ptr %48, align 8
  %50 = call i32 @evbuffer_enable_locking(ptr noundef %49, ptr noundef nonnull %.026) #7
  %51 = getelementptr inbounds nuw i8, ptr %0, i64 264
  %52 = load ptr, ptr %51, align 8
  %53 = call i32 @evbuffer_enable_locking(ptr noundef %52, ptr noundef nonnull %.026) #7
  br i1 %46, label %54, label %.thread37

54:                                               ; preds = %45
  %55 = getelementptr inbounds nuw i8, ptr %47, i64 448
  %56 = load ptr, ptr %55, align 8
  %.not36 = icmp eq ptr %56, null
  br i1 %.not36, label %57, label %.thread37

57:                                               ; preds = %54
  %58 = call i32 @bufferevent_enable_locking_(ptr noundef nonnull %47, ptr noundef nonnull %.026)
  br label %.thread37

.thread37:                                        ; preds = %.thread, %45, %54, %57, %33, %2
  %.0 = phi i32 [ -1, %2 ], [ -1, %33 ], [ 0, %57 ], [ 0, %54 ], [ 0, %45 ], [ -1, %.thread ]
  ret i32 %.0
}